; Function Attrs: nounwind uwtable
define void @Gia_ManDfsForCrossCut_rec(ptr noundef %0, ptr noundef %1, ptr noundef %2) local_unnamed_addr #2 {
  %4 = getelementptr inbounds nuw i8, ptr %0, i64 616
  %5 = load ptr, ptr %4, align 8
  %6 = getelementptr i8, ptr %0, i64 32
  %.val.i = load ptr, ptr %6, align 8
  %7 = ptrtoint ptr %1 to i64
  %8 = ptrtoint ptr %.val.i to i64
  %9 = sub i64 %7, %8
  %10 = sdiv exact i64 %9, 12
  %sext.i = shl i64 %10, 32
  %11 = ashr exact i64 %sext.i, 30
  %12 = getelementptr inbounds i8, ptr %5, i64 %11
  %13 = load i32, ptr %12, align 4
  %14 = getelementptr inbounds nuw i8, ptr %0, i64 176
  %15 = load i32, ptr %14, align 8
  %.not = icmp eq i32 %13, %15
  br i1 %.not, label %130, label %16

16:                                               ; preds = %3
  store i32 %15, ptr %12, align 4
  %.val32 = load i64, ptr %1, align 4
  %17 = and i64 %.val32, 2684354559
  %narrow.i.not = icmp eq i64 %17, 2684354559
  br i1 %narrow.i.not, label %18, label %48

18:                                               ; preds = %16
  %.val30 = load ptr, ptr %6, align 8
  %19 = getelementptr inbounds nuw i8, ptr %2, i64 4
  %20 = load i32, ptr %19, align 4
  %21 = load i32, ptr %2, align 8
  %22 = icmp eq i32 %20, %21
  br i1 %22, label %23, label %.Vec_IntGrow.exit10_crit_edge.i

.Vec_IntGrow.exit10_crit_edge.i:                  ; preds = %18
  %.phi.trans.insert.i = getelementptr inbounds nuw i8, ptr %2, i64 8
  %.pre.i = load ptr, ptr %.phi.trans.insert.i, align 8
  br label %Vec_IntPush.exit

23:                                               ; preds = %18
  %24 = icmp slt i32 %20, 16
  br i1 %24, label %25, label %33

25:                                               ; preds = %23
  %26 = getelementptr inbounds nuw i8, ptr %2, i64 8
  %27 = load ptr, ptr %26, align 8
  %.not9.i.i = icmp eq ptr %27, null
  br i1 %.not9.i.i, label %30, label %28

28:                                               ; preds = %25
  %29 = tail call dereferenceable_or_null(64) ptr @realloc(ptr noundef nonnull %27, i64 noundef 64) #39
  br label %Vec_IntGrow.exit.i

30:                                               ; preds = %25
  %31 = tail call noalias dereferenceable_or_null(64) ptr @malloc(i64 noundef 64) #40
  br label %Vec_IntGrow.exit.i

Vec_IntGrow.exit.i:                               ; preds = %30, %28
  %32 = phi ptr [ %29, %28 ], [ %31, %30 ]
  store ptr %32, ptr %26, align 8
  store i32 16, ptr %2, align 8
  br label %Vec_IntPush.exit

33:                                               ; preds = %23
  %34 = shl nuw nsw i32 %20, 1
  %35 = getelementptr inbounds nuw i8, ptr %2, i64 8
  %36 = load ptr, ptr %35, align 8
  %.not9.i9.i = icmp eq ptr %36, null
  %37 = zext nneg i32 %34 to i64
  %38 = shl nuw nsw i64 %37, 2
  br i1 %.not9.i9.i, label %41, label %39

39:                                               ; preds = %33
  %40 = tail call ptr @realloc(ptr noundef nonnull %36, i64 noundef %38) #39
  br label %43

41:                                               ; preds = %33
  %42 = tail call noalias ptr @malloc(i64 noundef %38) #40
  br label %43

43:                                               ; preds = %41, %39
  %44 = phi ptr [ %40, %39 ], [ %42, %41 ]
  store ptr %44, ptr %35, align 8
  store i32 %34, ptr %2, align 8
  br label %Vec_IntPush.exit

Vec_IntPush.exit:                                 ; preds = %.Vec_IntGrow.exit10_crit_edge.i, %Vec_IntGrow.exit.i, %43
  %45 = phi ptr [ %.pre.i, %.Vec_IntGrow.exit10_crit_edge.i ], [ %44, %43 ], [ %32, %Vec_IntGrow.exit.i ]
  %46 = load i32, ptr %19, align 4
  %47 = add nsw i32 %46, 1
  store i32 %47, ptr %19, align 4
  br label %.sink.split

48:                                               ; preds = %16
  %49 = and i64 %.val32, 2147483648
  %.not.i = icmp eq i64 %49, 0
  %50 = and i64 %.val32, 536870911
  %51 = icmp eq i64 %50, 536870911
  %narrow.i35.not = or i1 %.not.i, %51
  %52 = sub nsw i64 0, %50
  %53 = getelementptr inbounds %struct.Gia_Obj_t_, ptr %1, i64 %52
  %54 = getelementptr inbounds nuw i8, ptr %53, i64 8
  %55 = load i32, ptr %54, align 4
  %56 = add i32 %55, 1
  store i32 %56, ptr %54, align 4
  br i1 %narrow.i35.not, label %87, label %57

57:                                               ; preds = %48
  tail call void @Gia_ManDfsForCrossCut_rec(ptr noundef nonnull %0, ptr noundef nonnull %53, ptr noundef %2)
  %.val29 = load ptr, ptr %6, align 8
  %58 = getelementptr inbounds nuw i8, ptr %2, i64 4
  %59 = load i32, ptr %58, align 4
  %60 = load i32, ptr %2, align 8
  %61 = icmp eq i32 %59, %60
  br i1 %61, label %62, label %.Vec_IntGrow.exit10_crit_edge.i36

.Vec_IntGrow.exit10_crit_edge.i36:                ; preds = %57
  %.phi.trans.insert.i37 = getelementptr inbounds nuw i8, ptr %2, i64 8
  %.pre.i38 = load ptr, ptr %.phi.trans.insert.i37, align 8
  br label %Vec_IntPush.exit42

62:                                               ; preds = %57
  %63 = icmp slt i32 %59, 16
  br i1 %63, label %64, label %72

64:                                               ; preds = %62
  %65 = getelementptr inbounds nuw i8, ptr %2, i64 8
  %66 = load ptr, ptr %65, align 8
  %.not9.i.i40 = icmp eq ptr %66, null
  br i1 %.not9.i.i40, label %69, label %67

67:                                               ; preds = %64
  %68 = tail call dereferenceable_or_null(64) ptr @realloc(ptr noundef nonnull %66, i64 noundef 64) #39
  br label %Vec_IntGrow.exit.i41

69:                                               ; preds = %64
  %70 = tail call noalias dereferenceable_or_null(64) ptr @malloc(i64 noundef 64) #40
  br label %Vec_IntGrow.exit.i41

Vec_IntGrow.exit.i41:                             ; preds = %69, %67
  %71 = phi ptr [ %68, %67 ], [ %70, %69 ]
  store ptr %71, ptr %65, align 8
  store i32 16, ptr %2, align 8
  br label %Vec_IntPush.exit42

72:                                               ; preds = %62
  %73 = shl nuw nsw i32 %59, 1
  %74 = getelementptr inbounds nuw i8, ptr %2, i64 8
  %75 = load ptr, ptr %74, align 8
  %.not9.i9.i39 = icmp eq ptr %75, null
  %76 = zext nneg i32 %73 to i64
  %77 = shl nuw nsw i64 %76, 2
  br i1 %.not9.i9.i39, label %80, label %78

78:                                               ; preds = %72
  %79 = tail call ptr @realloc(ptr noundef nonnull %75, i64 noundef %77) #39
  br label %82

80:                                               ; preds = %72
  %81 = tail call noalias ptr @malloc(i64 noundef %77) #40
  br label %82

82:                                               ; preds = %80, %78
  %83 = phi ptr [ %79, %78 ], [ %81, %80 ]
  store ptr %83, ptr %74, align 8
  store i32 %73, ptr %2, align 8
  br label %Vec_IntPush.exit42

Vec_IntPush.exit42:                               ; preds = %.Vec_IntGrow.exit10_crit_edge.i36, %Vec_IntGrow.exit.i41, %82
  %84 = phi ptr [ %.pre.i38, %.Vec_IntGrow.exit10_crit_edge.i36 ], [ %83, %82 ], [ %71, %Vec_IntGrow.exit.i41 ]
  %85 = load i32, ptr %58, align 4
  %86 = add nsw i32 %85, 1
  store i32 %86, ptr %58, align 4
  br label %.sink.split

87:                                               ; preds = %48
  %88 = lshr i64 %.val32, 32
  %89 = and i64 %88, 536870911
  %90 = sub nsw i64 0, %89
  %91 = getelementptr inbounds %struct.Gia_Obj_t_, ptr %1, i64 %90, i32 1
  %92 = load i32, ptr %91, align 4
  %93 = add i32 %92, 1
  store i32 %93, ptr %91, align 4
  tail call void @Gia_ManDfsForCrossCut_rec(ptr noundef nonnull %0, ptr noundef nonnull %53, ptr noundef %2)
  %94 = load i64, ptr %1, align 4
  %95 = lshr i64 %94, 32
  %96 = and i64 %95, 536870911
  %97 = sub nsw i64 0, %96
  %98 = getelementptr inbounds %struct.Gia_Obj_t_, ptr %1, i64 %97
  tail call void @Gia_ManDfsForCrossCut_rec(ptr noundef nonnull %0, ptr noundef nonnull %98, ptr noundef %2)
  %.val = load ptr, ptr %6, align 8
  %99 = getelementptr inbounds nuw i8, ptr %2, i64 4
  %100 = load i32, ptr %99, align 4
  %101 = load i32, ptr %2, align 8
  %102 = icmp eq i32 %100, %101
  br i1 %102, label %103, label %.Vec_IntGrow.exit10_crit_edge.i43

.Vec_IntGrow.exit10_crit_edge.i43:                ; preds = %87
  %.phi.trans.insert.i44 = getelementptr inbounds nuw i8, ptr %2, i64 8
  %.pre.i45 = load ptr, ptr %.phi.trans.insert.i44, align 8
  br label %Vec_IntPush.exit49

103:                                              ; preds = %87
  %104 = icmp slt i32 %100, 16
  br i1 %104, label %105, label %113

105:                                              ; preds = %103
  %106 = getelementptr inbounds nuw i8, ptr %2, i64 8
  %107 = load ptr, ptr %106, align 8
  %.not9.i.i47 = icmp eq ptr %107, null
  br i1 %.not9.i.i47, label %110, label %108

108:                                              ; preds = %105
  %109 = tail call dereferenceable_or_null(64) ptr @realloc(ptr noundef nonnull %107, i64 noundef 64) #39
  br label %Vec_IntGrow.exit.i48

110:                                              ; preds = %105
  %111 = tail call noalias dereferenceable_or_null(64) ptr @malloc(i64 noundef 64) #40
  br label %Vec_IntGrow.exit.i48

Vec_IntGrow.exit.i48:                             ; preds = %110, %108
  %112 = phi ptr [ %109, %108 ], [ %111, %110 ]
  store ptr %112, ptr %106, align 8
  store i32 16, ptr %2, align 8
  br label %Vec_IntPush.exit49

113:                                              ; preds = %103
  %114 = shl nuw nsw i32 %100, 1
  %115 = getelementptr inbounds nuw i8, ptr %2, i64 8
  %116 = load ptr, ptr %115, align 8
  %.not9.i9.i46 = icmp eq ptr %116, null
  %117 = zext nneg i32 %114 to i64
  %118 = shl nuw nsw i64 %117, 2
  br i1 %.not9.i9.i46, label %121, label %119

119:                                              ; preds = %113
  %120 = tail call ptr @realloc(ptr noundef nonnull %116, i64 noundef %118) #39
  br label %123

121:                                              ; preds = %113
  %122 = tail call noalias ptr @malloc(i64 noundef %118) #40
  br label %123

123:                                              ; preds = %121, %119
  %124 = phi ptr [ %120, %119 ], [ %122, %121 ]
  store ptr %124, ptr %115, align 8
  store i32 %114, ptr %2, align 8
  br label %Vec_IntPush.exit49

Vec_IntPush.exit49:                               ; preds = %.Vec_IntGrow.exit10_crit_edge.i43, %Vec_IntGrow.exit.i48, %123
  %125 = phi ptr [ %.pre.i45, %.Vec_IntGrow.exit10_crit_edge.i43 ], [ %124, %123 ], [ %112, %Vec_IntGrow.exit.i48 ]
  %126 = load i32, ptr %99, align 4
  %127 = add nsw i32 %126, 1
  store i32 %127, ptr %99, align 4
  br label %.sink.split

.sink.split:                                      ; preds = %Vec_IntPush.exit, %Vec_IntPush.exit42, %Vec_IntPush.exit49
  %.sink54 = phi i32 [ %126, %Vec_IntPush.exit49 ], [ %85, %Vec_IntPush.exit42 ], [ %46, %Vec_IntPush.exit ]
  %.sink52 = phi ptr [ %125, %Vec_IntPush.exit49 ], [ %84, %Vec_IntPush.exit42 ], [ %45, %Vec_IntPush.exit ]
  %.pn.in = phi ptr [ %.val, %Vec_IntPush.exit49 ], [ %.val29, %Vec_IntPush.exit42 ], [ %.val30, %Vec_IntPush.exit ]
  %.pn = ptrtoint ptr %.pn.in to i64
  %.sink.in.in = sub i64 %7, %.pn
  %.sink.in = sdiv exact i64 %.sink.in.in, 12
  %.sink = trunc i64 %.sink.in to i32
  %128 = sext i32 %.sink54 to i64
  %129 = getelementptr inbounds i32, ptr %.sink52, i64 %128
  store i32 %.sink, ptr %129, align 4
  br label %130

130:                                              ; preds = %.sink.split, %3
  ret void
}